; Function Attrs: mustprogress uwtable
define internal noundef zeroext i1 @_ZL47iomgr_platform_add_closure_to_background_pollerP12grpc_closureN4absl12lts_202407226StatusE(ptr noundef %0, ptr noundef readonly captures(none) %1) #3 personality ptr @__gxx_personality_v0 {
  %3 = alloca %"class.absl::lts_20240722::Status", align 8
  %4 = load i64, ptr %1, align 8, !tbaa !23
  store i64 %4, ptr %3, align 8, !tbaa !23
  %5 = and i64 %4, 1
  %.not.i.i = icmp eq i64 %5, 0
  br i1 %.not.i.i, label %6, label %_ZN4absl12lts_202407226StatusC2ERKS1_.exit

6:                                                ; preds = %2
  %7 = inttoptr i64 %4 to ptr
  %8 = atomicrmw add ptr %7, i32 1 monotonic, align 4
  br label %_ZN4absl12lts_202407226StatusC2ERKS1_.exit

_ZN4absl12lts_202407226StatusC2ERKS1_.exit:       ; preds = %2, %6
  %9 = invoke noundef zeroext i1 @_Z37grpc_add_closure_to_background_pollerP12grpc_closureN4absl12lts_202407226StatusE(ptr noundef %0, ptr noundef nonnull %3)
          to label %10 unwind label %18

10:                                               ; preds = %_ZN4absl12lts_202407226StatusC2ERKS1_.exit
  %11 = load i64, ptr %3, align 8, !tbaa !23
  %12 = and i64 %11, 1
  %.not.i.i2 = icmp eq i64 %12, 0
  br i1 %.not.i.i2, label %13, label %_ZN4absl12lts_202407226StatusD2Ev.exit

13:                                               ; preds = %10
  %14 = inttoptr i64 %11 to ptr
  invoke void @_ZNK4absl12lts_2024072215status_internal9StatusRep5UnrefEv(ptr noundef nonnull align 8 dereferenceable(48) %14)
          to label %_ZN4absl12lts_202407226StatusD2Ev.exit unwind label %15

15:                                               ; preds = %13
  %16 = landingpad { ptr, i32 }
          catch ptr null
  %17 = extractvalue { ptr, i32 } %16, 0
  call void @__clang_call_terminate(ptr %17) #20
  unreachable

_ZN4absl12lts_202407226StatusD2Ev.exit:           ; preds = %10, %13
  ret i1 %9

18:                                               ; preds = %_ZN4absl12lts_202407226StatusC2ERKS1_.exit
  %19 = landingpad { ptr, i32 }
          cleanup
  call void @_ZN4absl12lts_202407226StatusD2Ev(ptr noundef nonnull align 8 dereferenceable(8) %3) #18
  resume { ptr, i32 } %19
}